; Function Attrs: nounwind uwtable
define internal range(i32 -1, 1) i32 @_bz2_exec(ptr noundef %0) #0 {
  %2 = tail call ptr @PyModule_GetState(ptr noundef %0) #7
  %3 = tail call ptr @PyType_FromModuleAndSpec(ptr noundef %0, ptr noundef nonnull @bz2_compressor_type_spec, ptr noundef null) #7
  store ptr %3, ptr %2, align 8, !tbaa !3
  %4 = icmp eq ptr %3, null
  br i1 %4, label %14, label %5

5:                                                ; preds = %1
  %6 = tail call i32 @PyModule_AddType(ptr noundef %0, ptr noundef nonnull %3) #7
  %7 = icmp slt i32 %6, 0
  br i1 %7, label %14, label %8

8:                                                ; preds = %5
  %9 = tail call ptr @PyType_FromModuleAndSpec(ptr noundef %0, ptr noundef nonnull @bz2_decompressor_type_spec, ptr noundef null) #7
  %10 = getelementptr inbounds nuw i8, ptr %2, i64 8
  store ptr %9, ptr %10, align 8, !tbaa !9
  %11 = icmp eq ptr %9, null
  br i1 %11, label %14, label %12

12:                                               ; preds = %8
  %13 = tail call i32 @PyModule_AddType(ptr noundef %0, ptr noundef nonnull %9) #7
  %.lobit = ashr i32 %13, 31
  br label %14

14:                                               ; preds = %12, %8, %5, %1
  %.0 = phi i32 [ -1, %1 ], [ -1, %5 ], [ -1, %8 ], [ %.lobit, %12 ]
  ret i32 %.0
}